target datalayout = "e-m:e-p270:32:32-p271:32:32-p272:64:64-i64:64-i128:128-f80:128-n8:16:32:64-S128"
target triple = "x86_64-pc-linux-gnu"

%struct.Abc_Obj_t_ = type { ptr, ptr, i32, i32, %struct.Vec_Int_t_, %struct.Vec_Int_t_, %union.anon, %union.anon.0 }
%struct.Vec_Int_t_ = type { i32, i32, ptr }
%union.anon = type { ptr }
%union.anon.0 = type { ptr }
%struct.Abc_Ntk_t_ = type { i32, i32, ptr, ptr, ptr, ptr, ptr, ptr, ptr, ptr, ptr, ptr, ptr, [11 x i32], i32, i32, i32, i32, ptr, i32, ptr, ptr, i32, i32, i32, double, i32, %struct.Vec_Int_t_, ptr, ptr, ptr, ptr, ptr, float, i32, ptr, ptr, ptr, ptr, ptr, ptr, ptr, ptr, ptr, ptr, ptr, ptr, ptr, ptr, ptr, ptr, ptr, ptr, ptr, ptr, ptr }

@.str.2 = private unnamed_addr constant [21 x i8] c"Node %s is not among\00", align 1
@.str.3 = private unnamed_addr constant [27 x i8] c" the fanins of node %s...\0A\00", align 1
@.str.4 = private unnamed_addr constant [37 x i8] c" the fanouts of its old fanin %s...\0A\00", align 1

; Function Attrs: nounwind uwtable
define internal i32 @Vec_IntRemove(ptr noundef %0, i32 noundef %1) #0 {
  %3 = alloca i32, align 4
  %4 = alloca ptr, align 8
  %5 = alloca i32, align 4
  %6 = alloca i32, align 4
  store ptr %0, ptr %4, align 8
  store i32 %1, ptr %5, align 4
  store i32 0, ptr %6, align 4
  br label %7

7:                                                ; preds = %25, %2
  %8 = load i32, ptr %6, align 4
  %9 = load ptr, ptr %4, align 8
  %10 = getelementptr inbounds %struct.Vec_Int_t_, ptr %9, i32 0, i32 1
  %11 = load i32, ptr %10, align 4
  %12 = icmp slt i32 %8, %11
  br i1 %12, label %13, label %28

13:                                               ; preds = %7
  %14 = load ptr, ptr %4, align 8
  %15 = getelementptr inbounds %struct.Vec_Int_t_, ptr %14, i32 0, i32 2
  %16 = load ptr, ptr %15, align 8
  %17 = load i32, ptr %6, align 4
  %18 = sext i32 %17 to i64
  %19 = getelementptr inbounds i32, ptr %16, i64 %18
  %20 = load i32, ptr %19, align 4
  %21 = load i32, ptr %5, align 4
  %22 = icmp eq i32 %20, %21
  br i1 %22, label %23, label %24

23:                                               ; preds = %13
  br label %28

24:                                               ; preds = %13
  br label %25

25:                                               ; preds = %24
  %26 = load i32, ptr %6, align 4
  %27 = add nsw i32 %26, 1
  store i32 %27, ptr %6, align 4
  br label %7, !llvm.loop !6

28:                                               ; preds = %23, %7
  %29 = load i32, ptr %6, align 4
  %30 = load ptr, ptr %4, align 8
  %31 = getelementptr inbounds %struct.Vec_Int_t_, ptr %30, i32 0, i32 1
  %32 = load i32, ptr %31, align 4
  %33 = icmp eq i32 %29, %32
  br i1 %33, label %34, label %35

34:                                               ; preds = %28
  store i32 0, ptr %3, align 4
  br label %67

35:                                               ; preds = %28
  %36 = load i32, ptr %6, align 4
  %37 = add nsw i32 %36, 1
  store i32 %37, ptr %6, align 4
  br label %38

38:                                               ; preds = %59, %35
  %39 = load i32, ptr %6, align 4
  %40 = load ptr, ptr %4, align 8
  %41 = getelementptr inbounds %struct.Vec_Int_t_, ptr %40, i32 0, i32 1
  %42 = load i32, ptr %41, align 4
  %43 = icmp slt i32 %39, %42
  br i1 %43, label %44, label %62

44:                                               ; preds = %38
  %45 = load ptr, ptr %4, align 8
  %46 = getelementptr inbounds %struct.Vec_Int_t_, ptr %45, i32 0, i32 2
  %47 = load ptr, ptr %46, align 8
  %48 = load i32, ptr %6, align 4
  %49 = sext i32 %48 to i64
  %50 = getelementptr inbounds i32, ptr %47, i64 %49
  %51 = load i32, ptr %50, align 4
  %52 = load ptr, ptr %4, align 8
  %53 = getelementptr inbounds %struct.Vec_Int_t_, ptr %52, i32 0, i32 2
  %54 = load ptr, ptr %53, align 8
  %55 = load i32, ptr %6, align 4
  %56 = sub nsw i32 %55, 1
  %57 = sext i32 %56 to i64
  %58 = getelementptr inbounds i32, ptr %54, i64 %57
  store i32 %51, ptr %58, align 4
  br label %59

59:                                               ; preds = %44
  %60 = load i32, ptr %6, align 4
  %61 = add nsw i32 %60, 1
  store i32 %61, ptr %6, align 4
  br label %38, !llvm.loop !7

62:                                               ; preds = %38
  %63 = load ptr, ptr %4, align 8
  %64 = getelementptr inbounds %struct.Vec_Int_t_, ptr %63, i32 0, i32 1
  %65 = load i32, ptr %64, align 4
  %66 = add nsw i32 %65, -1
  store i32 %66, ptr %64, align 4
  store i32 1, ptr %3, align 4
  br label %67

67:                                               ; preds = %62, %34
  %68 = load i32, ptr %3, align 4
  ret i32 %68
}

; Function Attrs: nounwind uwtable
define internal void @Abc_ObjXorFaninC(ptr noundef %0, i32 noundef %1) #0 {
  %3 = alloca ptr, align 8
  %4 = alloca i32, align 4
  store ptr %0, ptr %3, align 8
  store i32 %1, ptr %4, align 4
  %5 = load i32, ptr %4, align 4
  %6 = icmp ne i32 %5, 0
  br i1 %6, label %7, label %19

7:                                                ; preds = %2
  %8 = load ptr, ptr %3, align 8
  %9 = getelementptr inbounds %struct.Abc_Obj_t_, ptr %8, i32 0, i32 3
  %10 = load i32, ptr %9, align 4
  %11 = lshr i32 %10, 11
  %12 = and i32 %11, 1
  %13 = xor i32 %12, 1
  %14 = load i32, ptr %9, align 4
  %15 = and i32 %13, 1
  %16 = shl i32 %15, 11
  %17 = and i32 %14, -2049
  %18 = or i32 %17, %16
  store i32 %18, ptr %9, align 4
  br label %31

19:                                               ; preds = %2
  %20 = load ptr, ptr %3, align 8
  %21 = getelementptr inbounds %struct.Abc_Obj_t_, ptr %20, i32 0, i32 3
  %22 = load i32, ptr %21, align 4
  %23 = lshr i32 %22, 10
  %24 = and i32 %23, 1
  %25 = xor i32 %24, 1
  %26 = load i32, ptr %21, align 4
  %27 = and i32 %25, 1
  %28 = shl i32 %27, 10
  %29 = and i32 %26, -1025
  %30 = or i32 %29, %28
  store i32 %30, ptr %21, align 4
  br label %31

31:                                               ; preds = %19, %7
  ret void
}

; Function Attrs: nounwind uwtable
define internal i32 @Abc_ObjIsComplement(ptr noundef %0) #0 {
  %2 = alloca ptr, align 8
  store ptr %0, ptr %2, align 8
  %3 = load ptr, ptr %2, align 8
  %4 = ptrtoint ptr %3 to i64
  %5 = and i64 %4, 1
  %6 = trunc i64 %5 to i32
  ret i32 %6
}

; Function Attrs: nounwind uwtable
define internal void @Vec_IntWriteEntry(ptr noundef %0, i32 noundef %1, i32 noundef %2) #0 {
  %4 = alloca ptr, align 8
  %5 = alloca i32, align 4
  %6 = alloca i32, align 4
  store ptr %0, ptr %4, align 8
  store i32 %1, ptr %5, align 4
  store i32 %2, ptr %6, align 4
  %7 = load i32, ptr %6, align 4
  %8 = load ptr, ptr %4, align 8
  %9 = getelementptr inbounds %struct.Vec_Int_t_, ptr %8, i32 0, i32 2
  %10 = load ptr, ptr %9, align 8
  %11 = load i32, ptr %5, align 4
  %12 = sext i32 %11 to i64
  %13 = getelementptr inbounds i32, ptr %10, i64 %12
  store i32 %7, ptr %13, align 4
  ret void
}

; Function Attrs: nounwind uwtable
define internal i32 @Vec_IntFind(ptr noundef %0, i32 noundef %1) #0 {
  %3 = alloca i32, align 4
  %4 = alloca ptr, align 8
  %5 = alloca i32, align 4
  %6 = alloca i32, align 4
  store ptr %0, ptr %4, align 8
  store i32 %1, ptr %5, align 4
  store i32 0, ptr %6, align 4
  br label %7

7:                                                ; preds = %26, %2
  %8 = load i32, ptr %6, align 4
  %9 = load ptr, ptr %4, align 8
  %10 = getelementptr inbounds %struct.Vec_Int_t_, ptr %9, i32 0, i32 1
  %11 = load i32, ptr %10, align 4
  %12 = icmp slt i32 %8, %11
  br i1 %12, label %13, label %29

13:                                               ; preds = %7
  %14 = load ptr, ptr %4, align 8
  %15 = getelementptr inbounds %struct.Vec_Int_t_, ptr %14, i32 0, i32 2
  %16 = load ptr, ptr %15, align 8
  %17 = load i32, ptr %6, align 4
  %18 = sext i32 %17 to i64
  %19 = getelementptr inbounds i32, ptr %16, i64 %18
  %20 = load i32, ptr %19, align 4
  %21 = load i32, ptr %5, align 4
  %22 = icmp eq i32 %20, %21
  br i1 %22, label %23, label %25

23:                                               ; preds = %13
  %24 = load i32, ptr %6, align 4
  store i32 %24, ptr %3, align 4
  br label %30

25:                                               ; preds = %13
  br label %26

26:                                               ; preds = %25
  %27 = load i32, ptr %6, align 4
  %28 = add nsw i32 %27, 1
  store i32 %28, ptr %6, align 4
  br label %7, !llvm.loop !9

29:                                               ; preds = %7
  store i32 -1, ptr %3, align 4
  br label %30

30:                                               ; preds = %29, %23
  %31 = load i32, ptr %3, align 4
  ret i32 %31
}

; Function Attrs: nounwind uwtable
define internal ptr @Abc_ObjRegular(ptr noundef %0) #0 {
  %2 = alloca ptr, align 8
  store ptr %0, ptr %2, align 8
  %3 = load ptr, ptr %2, align 8
  %4 = ptrtoint ptr %3 to i64
  %5 = and i64 %4, -2
  %6 = inttoptr i64 %5 to ptr
  ret ptr %6
}

; Function Attrs: nounwind uwtable
define void @Abc_ObjPatchFanin(ptr noundef %0, ptr noundef %1, ptr noundef %2) #0 {
  %4 = alloca ptr, align 8
  %5 = alloca ptr, align 8
  %6 = alloca ptr, align 8
  %7 = alloca ptr, align 8
  %8 = alloca i32, align 4
  store ptr %0, ptr %4, align 8
  store ptr %1, ptr %5, align 8
  store ptr %2, ptr %6, align 8
  %9 = load ptr, ptr %6, align 8
  %10 = call ptr @Abc_ObjRegular(ptr noundef %9)
  store ptr %10, ptr %7, align 8
  %11 = load ptr, ptr %4, align 8
  %12 = getelementptr inbounds %struct.Abc_Obj_t_, ptr %11, i32 0, i32 4
  %13 = load ptr, ptr %5, align 8
  %14 = getelementptr inbounds %struct.Abc_Obj_t_, ptr %13, i32 0, i32 2
  %15 = load i32, ptr %14, align 8
  %16 = call i32 @Vec_IntFind(ptr noundef %12, i32 noundef %15)
  store i32 %16, ptr %8, align 4
  %17 = icmp eq i32 %16, -1
  br i1 %17, label %18, label %25

18:                                               ; preds = %3
  %19 = load ptr, ptr %5, align 8
  %20 = call ptr @Abc_ObjName(ptr noundef %19)
  %21 = call i32 (ptr, ...) @printf(ptr noundef @.str.2, ptr noundef %20)
  %22 = load ptr, ptr %4, align 8
  %23 = call ptr @Abc_ObjName(ptr noundef %22)
  %24 = call i32 (ptr, ...) @printf(ptr noundef @.str.3, ptr noundef %23)
  br label %64

25:                                               ; preds = %3
  %26 = load ptr, ptr %4, align 8
  %27 = getelementptr inbounds %struct.Abc_Obj_t_, ptr %26, i32 0, i32 4
  %28 = load i32, ptr %8, align 4
  %29 = load ptr, ptr %7, align 8
  %30 = getelementptr inbounds %struct.Abc_Obj_t_, ptr %29, i32 0, i32 2
  %31 = load i32, ptr %30, align 8
  call void @Vec_IntWriteEntry(ptr noundef %27, i32 noundef %28, i32 noundef %31)
  %32 = load ptr, ptr %6, align 8
  %33 = call i32 @Abc_ObjIsComplement(ptr noundef %32)
  %34 = icmp ne i32 %33, 0
  br i1 %34, label %35, label %38

35:                                               ; preds = %25
  %36 = load ptr, ptr %4, align 8
  %37 = load i32, ptr %8, align 4
  call void @Abc_ObjXorFaninC(ptr noundef %36, i32 noundef %37)
  br label %38

38:                                               ; preds = %35, %25
  %39 = load ptr, ptr %5, align 8
  %40 = getelementptr inbounds %struct.Abc_Obj_t_, ptr %39, i32 0, i32 5
  %41 = load ptr, ptr %4, align 8
  %42 = getelementptr inbounds %struct.Abc_Obj_t_, ptr %41, i32 0, i32 2
  %43 = load i32, ptr %42, align 8
  %44 = call i32 @Vec_IntRemove(ptr noundef %40, i32 noundef %43)
  %45 = icmp ne i32 %44, 0
  br i1 %45, label %53, label %46

46:                                               ; preds = %38
  %47 = load ptr, ptr %4, align 8
  %48 = call ptr @Abc_ObjName(ptr noundef %47)
  %49 = call i32 (ptr, ...) @printf(ptr noundef @.str.2, ptr noundef %48)
  %50 = load ptr, ptr %5, align 8
  %51 = call ptr @Abc_ObjName(ptr noundef %50)
  %52 = call i32 (ptr, ...) @printf(ptr noundef @.str.4, ptr noundef %51)
  br label %53

53:                                               ; preds = %46, %38
  %54 = load ptr, ptr %4, align 8
  %55 = getelementptr inbounds %struct.Abc_Obj_t_, ptr %54, i32 0, i32 0
  %56 = load ptr, ptr %55, align 8
  %57 = getelementptr inbounds %struct.Abc_Ntk_t_, ptr %56, i32 0, i32 29
  %58 = load ptr, ptr %57, align 8
  %59 = load ptr, ptr %7, align 8
  %60 = getelementptr inbounds %struct.Abc_Obj_t_, ptr %59, i32 0, i32 5
  %61 = load ptr, ptr %4, align 8
  %62 = getelementptr inbounds %struct.Abc_Obj_t_, ptr %61, i32 0, i32 2
  %63 = load i32, ptr %62, align 8
  call void @Vec_IntPushMem(ptr noundef %58, ptr noundef %60, i32 noundef %63)
  br label %64

64:                                               ; preds = %53, %18
  ret void
}