; Function Attrs: nounwind uwtable
define void @Abc_ObjPatchFanin(ptr noundef %0, ptr noundef %1, ptr noundef %2) local_unnamed_addr #0 {
  %4 = ptrtoint ptr %2 to i64
  %5 = and i64 %4, -2
  %6 = inttoptr i64 %5 to ptr
  %7 = getelementptr inbounds nuw i8, ptr %1, i64 16
  %8 = load i32, ptr %7, align 8
  %9 = getelementptr inbounds nuw i8, ptr %0, i64 28
  %10 = load i32, ptr %9, align 4
  %11 = icmp sgt i32 %10, 0
  br i1 %11, label %.lr.ph.i, label %Vec_IntFind.exit.thread

.lr.ph.i:                                         ; preds = %3
  %12 = getelementptr i8, ptr %0, i64 32
  %13 = load ptr, ptr %12, align 8
  %wide.trip.count.i = zext nneg i32 %10 to i64
  br label %14

14:                                               ; preds = %18, %.lr.ph.i
  %indvars.iv.i = phi i64 [ 0, %.lr.ph.i ], [ %indvars.iv.next.i, %18 ]
  %15 = getelementptr inbounds nuw i32, ptr %13, i64 %indvars.iv.i
  %16 = load i32, ptr %15, align 4
  %17 = icmp eq i32 %16, %8
  br i1 %17, label %Vec_IntFind.exit, label %18

18:                                               ; preds = %14
  %indvars.iv.next.i = add nuw nsw i64 %indvars.iv.i, 1
  %exitcond.not.i = icmp eq i64 %indvars.iv.next.i, %wide.trip.count.i
  br i1 %exitcond.not.i, label %Vec_IntFind.exit.thread, label %14, !llvm.loop !9

Vec_IntFind.exit.thread:                          ; preds = %18, %3
  %19 = tail call ptr @Abc_ObjName(ptr noundef %1) #8
  %20 = tail call i32 (ptr, ...) @printf(ptr noundef nonnull dereferenceable(1) @.str.2, ptr noundef %19)
  %21 = tail call ptr @Abc_ObjName(ptr noundef %0) #8
  %22 = tail call i32 (ptr, ...) @printf(ptr noundef nonnull dereferenceable(1) @.str.3, ptr noundef %21)
  br label %71

Vec_IntFind.exit:                                 ; preds = %14
  %23 = getelementptr inbounds nuw i8, ptr %6, i64 16
  %24 = load i32, ptr %23, align 8
  %sext = shl i64 %indvars.iv.i, 32
  %25 = ashr exact i64 %sext, 30
  %26 = getelementptr inbounds i8, ptr %13, i64 %25
  store i32 %24, ptr %26, align 4
  %27 = and i64 %4, 1
  %.not = icmp eq i64 %27, 0
  br i1 %.not, label %32, label %28

28:                                               ; preds = %Vec_IntFind.exit
  %.not.i = icmp eq i64 %indvars.iv.i, 0
  %29 = getelementptr inbounds nuw i8, ptr %0, i64 20
  %30 = load i32, ptr %29, align 4
  %..i = select i1 %.not.i, i32 1024, i32 2048
  %31 = xor i32 %30, %..i
  store i32 %31, ptr %29, align 4
  br label %32

32:                                               ; preds = %28, %Vec_IntFind.exit
  %33 = getelementptr inbounds nuw i8, ptr %0, i64 16
  %34 = load i32, ptr %33, align 8
  %35 = getelementptr inbounds nuw i8, ptr %1, i64 44
  %36 = load i32, ptr %35, align 4
  %37 = icmp sgt i32 %36, 0
  br i1 %37, label %.lr.ph.i18, label %._crit_edge.i

.lr.ph.i18:                                       ; preds = %32
  %38 = getelementptr inbounds nuw i8, ptr %1, i64 48
  %39 = load ptr, ptr %38, align 8
  %wide.trip.count.i19 = zext nneg i32 %36 to i64
  br label %40

40:                                               ; preds = %44, %.lr.ph.i18
  %indvars.iv.i20 = phi i64 [ 0, %.lr.ph.i18 ], [ %indvars.iv.next.i21, %44 ]
  %41 = getelementptr inbounds nuw i32, ptr %39, i64 %indvars.iv.i20
  %42 = load i32, ptr %41, align 4
  %43 = icmp eq i32 %42, %34
  br i1 %43, label %._crit_edge.loopexit.i, label %44

44:                                               ; preds = %40
  %indvars.iv.next.i21 = add nuw nsw i64 %indvars.iv.i20, 1
  %exitcond.not.i22 = icmp eq i64 %indvars.iv.next.i21, %wide.trip.count.i19
  br i1 %exitcond.not.i22, label %.loopexit, label %40, !llvm.loop !6

._crit_edge.loopexit.i:                           ; preds = %40
  %45 = trunc nuw nsw i64 %indvars.iv.i20 to i32
  br label %._crit_edge.i

._crit_edge.i:                                    ; preds = %._crit_edge.loopexit.i, %32
  %.0.lcssa.i = phi i32 [ 0, %32 ], [ %45, %._crit_edge.loopexit.i ]
  %46 = icmp eq i32 %.0.lcssa.i, %36
  br i1 %46, label %.loopexit, label %.preheader.i

.preheader.i:                                     ; preds = %._crit_edge.i
  %.126.i = add nuw nsw i32 %.0.lcssa.i, 1
  %47 = icmp slt i32 %.126.i, %36
  br i1 %47, label %.lr.ph29.i, label %Vec_IntRemove.exit

.lr.ph29.i:                                       ; preds = %.preheader.i
  %48 = getelementptr inbounds nuw i8, ptr %1, i64 48
  %49 = zext i32 %.126.i to i64
  br label %50

50:                                               ; preds = %50, %.lr.ph29.i
  %indvars.iv34.i = phi i64 [ %49, %.lr.ph29.i ], [ %indvars.iv.next35.i, %50 ]
  %.1.in27.i = phi i32 [ %.0.lcssa.i, %.lr.ph29.i ], [ %59, %50 ]
  %51 = load ptr, ptr %48, align 8
  %52 = getelementptr inbounds nuw i32, ptr %51, i64 %indvars.iv34.i
  %53 = load i32, ptr %52, align 4
  %54 = zext nneg i32 %.1.in27.i to i64
  %55 = getelementptr inbounds nuw i32, ptr %51, i64 %54
  store i32 %53, ptr %55, align 4
  %indvars.iv.next35.i = add nuw nsw i64 %indvars.iv34.i, 1
  %56 = load i32, ptr %35, align 4
  %57 = trunc nuw i64 %indvars.iv.next35.i to i32
  %58 = icmp sgt i32 %56, %57
  %59 = trunc nuw i64 %indvars.iv34.i to i32
  br i1 %58, label %50, label %Vec_IntRemove.exit, !llvm.loop !7

Vec_IntRemove.exit:                               ; preds = %50, %.preheader.i
  %.lcssa.i = phi i32 [ %36, %.preheader.i ], [ %56, %50 ]
  %60 = add nsw i32 %.lcssa.i, -1
  store i32 %60, ptr %35, align 4
  br label %65

.loopexit:                                        ; preds = %44, %._crit_edge.i
  %61 = tail call ptr @Abc_ObjName(ptr noundef %0) #8
  %62 = tail call i32 (ptr, ...) @printf(ptr noundef nonnull dereferenceable(1) @.str.2, ptr noundef %61)
  %63 = tail call ptr @Abc_ObjName(ptr noundef %1) #8
  %64 = tail call i32 (ptr, ...) @printf(ptr noundef nonnull dereferenceable(1) @.str.4, ptr noundef %63)
  br label %65

65:                                               ; preds = %Vec_IntRemove.exit, %.loopexit
  %66 = load ptr, ptr %0, align 8
  %67 = getelementptr inbounds nuw i8, ptr %66, i64 248
  %68 = load ptr, ptr %67, align 8
  %69 = getelementptr inbounds nuw i8, ptr %6, i64 40
  %70 = load i32, ptr %33, align 8
  tail call fastcc void @Vec_IntPushMem(ptr noundef %68, ptr noundef nonnull %69, i32 noundef %70)
  br label %71

71:                                               ; preds = %65, %Vec_IntFind.exit.thread
  ret void
}